target datalayout = "e-m:e-p270:32:32-p271:32:32-p272:64:64-i64:64-i128:128-f80:128-n8:16:32:64-S128"
target triple = "x86_64-pc-linux-gnu"

%struct.CORD_Pos = type { i64, i32, ptr, i64, i64, [49 x %struct.CORD_pe], [8 x i8] }
%struct.CORD_pe = type { ptr, i64 }

; Function Attrs: nounwind uwtable
define i64 @CORD_str(ptr noundef %0, i64 noundef %1, ptr noundef %2) #0 {
  %4 = alloca i64, align 8
  %5 = alloca ptr, align 8
  %6 = alloca i64, align 8
  %7 = alloca ptr, align 8
  %8 = alloca [1 x %struct.CORD_Pos], align 16
  %9 = alloca i64, align 8
  %10 = alloca i64, align 8
  %11 = alloca i64, align 8
  %12 = alloca ptr, align 8
  %13 = alloca i64, align 8
  %14 = alloca i64, align 8
  %15 = alloca i64, align 8
  %16 = alloca i64, align 8
  %17 = alloca i64, align 8
  %18 = alloca i32, align 4
  store ptr %0, ptr %5, align 8, !tbaa !3
  store i64 %1, ptr %6, align 8, !tbaa !11
  store ptr %2, ptr %7, align 8, !tbaa !3
  call void @llvm.lifetime.start.p0(i64 832, ptr %8) #9
  call void @llvm.lifetime.start.p0(i64 8, ptr %9) #9
  %19 = load ptr, ptr %5, align 8, !tbaa !3
  %20 = call i64 @CORD_len(ptr noundef %19)
  store i64 %20, ptr %9, align 8, !tbaa !11
  call void @llvm.lifetime.start.p0(i64 8, ptr %10) #9
  call void @llvm.lifetime.start.p0(i64 8, ptr %11) #9
  call void @llvm.lifetime.start.p0(i64 8, ptr %12) #9
  call void @llvm.lifetime.start.p0(i64 8, ptr %13) #9
  store i64 0, ptr %13, align 8, !tbaa !11
  call void @llvm.lifetime.start.p0(i64 8, ptr %14) #9
  store i64 0, ptr %14, align 8, !tbaa !11
  call void @llvm.lifetime.start.p0(i64 8, ptr %15) #9
  store i64 0, ptr %15, align 8, !tbaa !11
  call void @llvm.lifetime.start.p0(i64 8, ptr %16) #9
  call void @llvm.lifetime.start.p0(i64 8, ptr %17) #9
  %21 = load ptr, ptr %7, align 8, !tbaa !3
  %22 = icmp eq ptr %21, null
  br i1 %22, label %23, label %25

23:                                               ; preds = %3
  %24 = load i64, ptr %6, align 8, !tbaa !11
  store i64 %24, ptr %4, align 8
  store i32 1, ptr %18, align 4
  br label %211

25:                                               ; preds = %3
  %26 = load ptr, ptr %7, align 8, !tbaa !3
  %27 = load i8, ptr %26, align 1, !tbaa !8
  %28 = sext i8 %27 to i32
  %29 = icmp ne i32 %28, 0
  br i1 %29, label %30, label %34

30:                                               ; preds = %25
  %31 = load ptr, ptr %7, align 8, !tbaa !3
  store ptr %31, ptr %12, align 8, !tbaa !3
  %32 = load ptr, ptr %7, align 8, !tbaa !3
  %33 = call i64 @strlen(ptr noundef %32) #12
  store i64 %33, ptr %10, align 8, !tbaa !11
  br label %40

34:                                               ; preds = %25
  %35 = load ptr, ptr %7, align 8, !tbaa !3
  %36 = call ptr @CORD_substr(ptr noundef %35, i64 noundef 0, i64 noundef 8)
  %37 = call ptr @CORD_to_char_star(ptr noundef %36)
  store ptr %37, ptr %12, align 8, !tbaa !3
  %38 = load ptr, ptr %7, align 8, !tbaa !3
  %39 = call i64 @CORD_len(ptr noundef %38)
  store i64 %39, ptr %10, align 8, !tbaa !11
  br label %40

40:                                               ; preds = %34, %30
  %41 = load i64, ptr %9, align 8, !tbaa !11
  %42 = load i64, ptr %6, align 8, !tbaa !11
  %43 = icmp ult i64 %41, %42
  br i1 %43, label %50, label %44

44:                                               ; preds = %40
  %45 = load i64, ptr %9, align 8, !tbaa !11
  %46 = load i64, ptr %6, align 8, !tbaa !11
  %47 = sub i64 %45, %46
  %48 = load i64, ptr %10, align 8, !tbaa !11
  %49 = icmp ult i64 %47, %48
  br i1 %49, label %50, label %51

50:                                               ; preds = %44, %40
  store i64 -1, ptr %4, align 8
  store i32 1, ptr %18, align 4
  br label %211

51:                                               ; preds = %44
  %52 = load i64, ptr %10, align 8, !tbaa !11
  store i64 %52, ptr %11, align 8, !tbaa !11
  %53 = load i64, ptr %11, align 8, !tbaa !11
  %54 = icmp ugt i64 %53, 8
  br i1 %54, label %55, label %56

55:                                               ; preds = %51
  store i64 8, ptr %11, align 8, !tbaa !11
  br label %56

56:                                               ; preds = %55, %51
  %57 = getelementptr inbounds [1 x %struct.CORD_Pos], ptr %8, i64 0, i64 0
  %58 = load ptr, ptr %5, align 8, !tbaa !3
  %59 = load i64, ptr %6, align 8, !tbaa !11
  call void @CORD_set_pos(ptr noundef %57, ptr noundef %58, i64 noundef %59)
  store i64 0, ptr %16, align 8, !tbaa !11
  br label %60

60:                                               ; preds = %124, %56
  %61 = load i64, ptr %16, align 8, !tbaa !11
  %62 = load i64, ptr %11, align 8, !tbaa !11
  %63 = icmp ult i64 %61, %62
  br i1 %63, label %64, label %127

64:                                               ; preds = %60
  %65 = load i64, ptr %15, align 8, !tbaa !11
  %66 = shl i64 %65, 8
  store i64 %66, ptr %15, align 8, !tbaa !11
  %67 = load i64, ptr %15, align 8, !tbaa !11
  %68 = or i64 %67, 255
  store i64 %68, ptr %15, align 8, !tbaa !11
  %69 = load i64, ptr %13, align 8, !tbaa !11
  %70 = shl i64 %69, 8
  store i64 %70, ptr %13, align 8, !tbaa !11
  %71 = load ptr, ptr %12, align 8, !tbaa !3
  %72 = load i64, ptr %16, align 8, !tbaa !11
  %73 = getelementptr inbounds nuw i8, ptr %71, i64 %72
  %74 = load i8, ptr %73, align 1, !tbaa !8
  %75 = zext i8 %74 to i64
  %76 = load i64, ptr %13, align 8, !tbaa !11
  %77 = or i64 %76, %75
  store i64 %77, ptr %13, align 8, !tbaa !11
  %78 = load i64, ptr %14, align 8, !tbaa !11
  %79 = shl i64 %78, 8
  store i64 %79, ptr %14, align 8, !tbaa !11
  %80 = getelementptr inbounds [1 x %struct.CORD_Pos], ptr %8, i64 0, i64 0
  %81 = getelementptr inbounds nuw %struct.CORD_Pos, ptr %80, i32 0, i32 4
  %82 = load i64, ptr %81, align 16, !tbaa !19
  %83 = icmp ne i64 %82, 0
  br i1 %83, label %84, label %98

84:                                               ; preds = %64
  %85 = getelementptr inbounds [1 x %struct.CORD_Pos], ptr %8, i64 0, i64 0
  %86 = getelementptr inbounds nuw %struct.CORD_Pos, ptr %85, i32 0, i32 2
  %87 = load ptr, ptr %86, align 16, !tbaa !21
  %88 = getelementptr inbounds [1 x %struct.CORD_Pos], ptr %8, i64 0, i64 0
  %89 = getelementptr inbounds nuw %struct.CORD_Pos, ptr %88, i32 0, i32 0
  %90 = load i64, ptr %89, align 16, !tbaa !20
  %91 = getelementptr inbounds [1 x %struct.CORD_Pos], ptr %8, i64 0, i64 0
  %92 = getelementptr inbounds nuw %struct.CORD_Pos, ptr %91, i32 0, i32 3
  %93 = load i64, ptr %92, align 8, !tbaa !22
  %94 = sub i64 %90, %93
  %95 = getelementptr inbounds nuw i8, ptr %87, i64 %94
  %96 = load i8, ptr %95, align 1, !tbaa !8
  %97 = sext i8 %96 to i32
  br label %102

98:                                               ; preds = %64
  %99 = getelementptr inbounds [1 x %struct.CORD_Pos], ptr %8, i64 0, i64 0
  %100 = call signext i8 @CORD__pos_fetch(ptr noundef %99)
  %101 = sext i8 %100 to i32
  br label %102

102:                                              ; preds = %98, %84
  %103 = phi i32 [ %97, %84 ], [ %101, %98 ]
  %104 = trunc i32 %103 to i8
  %105 = zext i8 %104 to i64
  %106 = load i64, ptr %14, align 8, !tbaa !11
  %107 = or i64 %106, %105
  store i64 %107, ptr %14, align 8, !tbaa !11
  %108 = getelementptr inbounds [1 x %struct.CORD_Pos], ptr %8, i64 0, i64 0
  %109 = getelementptr inbounds nuw %struct.CORD_Pos, ptr %108, i32 0, i32 0
  %110 = load i64, ptr %109, align 16, !tbaa !20
  %111 = add i64 %110, 1
  %112 = getelementptr inbounds [1 x %struct.CORD_Pos], ptr %8, i64 0, i64 0
  %113 = getelementptr inbounds nuw %struct.CORD_Pos, ptr %112, i32 0, i32 4
  %114 = load i64, ptr %113, align 16, !tbaa !19
  %115 = icmp ult i64 %111, %114
  br i1 %115, label %116, label %121

116:                                              ; preds = %102
  %117 = getelementptr inbounds [1 x %struct.CORD_Pos], ptr %8, i64 0, i64 0
  %118 = getelementptr inbounds nuw %struct.CORD_Pos, ptr %117, i32 0, i32 0
  %119 = load i64, ptr %118, align 16, !tbaa !20
  %120 = add i64 %119, 1
  store i64 %120, ptr %118, align 16, !tbaa !20
  br label %123

121:                                              ; preds = %102
  %122 = getelementptr inbounds [1 x %struct.CORD_Pos], ptr %8, i64 0, i64 0
  call void @CORD__next(ptr noundef %122)
  br label %123

123:                                              ; preds = %121, %116
  br label %124

124:                                              ; preds = %123
  %125 = load i64, ptr %16, align 8, !tbaa !11
  %126 = add i64 %125, 1
  store i64 %126, ptr %16, align 8, !tbaa !11
  br label %60, !llvm.loop !32

127:                                              ; preds = %60
  %128 = load i64, ptr %6, align 8, !tbaa !11
  store i64 %128, ptr %17, align 8, !tbaa !11
  br label %129

129:                                              ; preds = %206, %127
  %130 = load i64, ptr %14, align 8, !tbaa !11
  %131 = load i64, ptr %15, align 8, !tbaa !11
  %132 = and i64 %130, %131
  %133 = load i64, ptr %13, align 8, !tbaa !11
  %134 = icmp eq i64 %132, %133
  br i1 %134, label %135, label %152

135:                                              ; preds = %129
  %136 = load i64, ptr %10, align 8, !tbaa !11
  %137 = load i64, ptr %11, align 8, !tbaa !11
  %138 = icmp eq i64 %136, %137
  br i1 %138, label %151, label %139

139:                                              ; preds = %135
  %140 = load ptr, ptr %5, align 8, !tbaa !3
  %141 = load i64, ptr %17, align 8, !tbaa !11
  %142 = load i64, ptr %11, align 8, !tbaa !11
  %143 = add i64 %141, %142
  %144 = load ptr, ptr %7, align 8, !tbaa !3
  %145 = load i64, ptr %11, align 8, !tbaa !11
  %146 = load i64, ptr %10, align 8, !tbaa !11
  %147 = load i64, ptr %11, align 8, !tbaa !11
  %148 = sub i64 %146, %147
  %149 = call i32 @CORD_ncmp(ptr noundef %140, i64 noundef %143, ptr noundef %144, i64 noundef %145, i64 noundef %148)
  %150 = icmp eq i32 %149, 0
  br i1 %150, label %151, label %152

151:                                              ; preds = %139, %135
  br label %209

152:                                              ; preds = %139, %129
  %153 = load i64, ptr %17, align 8, !tbaa !11
  %154 = load i64, ptr %9, align 8, !tbaa !11
  %155 = load i64, ptr %10, align 8, !tbaa !11
  %156 = sub i64 %154, %155
  %157 = icmp eq i64 %153, %156
  br i1 %157, label %158, label %159

158:                                              ; preds = %152
  store i64 -1, ptr %4, align 8
  store i32 1, ptr %18, align 4
  br label %211

159:                                              ; preds = %152
  %160 = load i64, ptr %14, align 8, !tbaa !11
  %161 = shl i64 %160, 8
  store i64 %161, ptr %14, align 8, !tbaa !11
  %162 = getelementptr inbounds [1 x %struct.CORD_Pos], ptr %8, i64 0, i64 0
  %163 = getelementptr inbounds nuw %struct.CORD_Pos, ptr %162, i32 0, i32 4
  %164 = load i64, ptr %163, align 16, !tbaa !19
  %165 = icmp ne i64 %164, 0
  br i1 %165, label %166, label %180

166:                                              ; preds = %159
  %167 = getelementptr inbounds [1 x %struct.CORD_Pos], ptr %8, i64 0, i64 0
  %168 = getelementptr inbounds nuw %struct.CORD_Pos, ptr %167, i32 0, i32 2
  %169 = load ptr, ptr %168, align 16, !tbaa !21
  %170 = getelementptr inbounds [1 x %struct.CORD_Pos], ptr %8, i64 0, i64 0
  %171 = getelementptr inbounds nuw %struct.CORD_Pos, ptr %170, i32 0, i32 0
  %172 = load i64, ptr %171, align 16, !tbaa !20
  %173 = getelementptr inbounds [1 x %struct.CORD_Pos], ptr %8, i64 0, i64 0
  %174 = getelementptr inbounds nuw %struct.CORD_Pos, ptr %173, i32 0, i32 3
  %175 = load i64, ptr %174, align 8, !tbaa !22
  %176 = sub i64 %172, %175
  %177 = getelementptr inbounds nuw i8, ptr %169, i64 %176
  %178 = load i8, ptr %177, align 1, !tbaa !8
  %179 = sext i8 %178 to i32
  br label %184

180:                                              ; preds = %159
  %181 = getelementptr inbounds [1 x %struct.CORD_Pos], ptr %8, i64 0, i64 0
  %182 = call signext i8 @CORD__pos_fetch(ptr noundef %181)
  %183 = sext i8 %182 to i32
  br label %184

184:                                              ; preds = %180, %166
  %185 = phi i32 [ %179, %166 ], [ %183, %180 ]
  %186 = trunc i32 %185 to i8
  %187 = zext i8 %186 to i64
  %188 = load i64, ptr %14, align 8, !tbaa !11
  %189 = or i64 %188, %187
  store i64 %189, ptr %14, align 8, !tbaa !11
  %190 = getelementptr inbounds [1 x %struct.CORD_Pos], ptr %8, i64 0, i64 0
  %191 = getelementptr inbounds nuw %struct.CORD_Pos, ptr %190, i32 0, i32 0
  %192 = load i64, ptr %191, align 16, !tbaa !20
  %193 = add i64 %192, 1
  %194 = getelementptr inbounds [1 x %struct.CORD_Pos], ptr %8, i64 0, i64 0
  %195 = getelementptr inbounds nuw %struct.CORD_Pos, ptr %194, i32 0, i32 4
  %196 = load i64, ptr %195, align 16, !tbaa !19
  %197 = icmp ult i64 %193, %196
  br i1 %197, label %198, label %203

198:                                              ; preds = %184
  %199 = getelementptr inbounds [1 x %struct.CORD_Pos], ptr %8, i64 0, i64 0
  %200 = getelementptr inbounds nuw %struct.CORD_Pos, ptr %199, i32 0, i32 0
  %201 = load i64, ptr %200, align 16, !tbaa !20
  %202 = add i64 %201, 1
  store i64 %202, ptr %200, align 16, !tbaa !20
  br label %205

203:                                              ; preds = %184
  %204 = getelementptr inbounds [1 x %struct.CORD_Pos], ptr %8, i64 0, i64 0
  call void @CORD__next(ptr noundef %204)
  br label %205

205:                                              ; preds = %203, %198
  br label %206

206:                                              ; preds = %205
  %207 = load i64, ptr %17, align 8, !tbaa !11
  %208 = add i64 %207, 1
  store i64 %208, ptr %17, align 8, !tbaa !11
  br label %129

209:                                              ; preds = %151
  %210 = load i64, ptr %17, align 8, !tbaa !11
  store i64 %210, ptr %4, align 8
  store i32 1, ptr %18, align 4
  br label %211

211:                                              ; preds = %209, %158, %50, %23
  call void @llvm.lifetime.end.p0(i64 8, ptr %17) #9
  call void @llvm.lifetime.end.p0(i64 8, ptr %16) #9
  call void @llvm.lifetime.end.p0(i64 8, ptr %15) #9
  call void @llvm.lifetime.end.p0(i64 8, ptr %14) #9
  call void @llvm.lifetime.end.p0(i64 8, ptr %13) #9
  call void @llvm.lifetime.end.p0(i64 8, ptr %12) #9
  call void @llvm.lifetime.end.p0(i64 8, ptr %11) #9
  call void @llvm.lifetime.end.p0(i64 8, ptr %10) #9
  call void @llvm.lifetime.end.p0(i64 8, ptr %9) #9
  call void @llvm.lifetime.end.p0(i64 832, ptr %8) #9
  %212 = load i64, ptr %4, align 8
  ret i64 %212
}