; Function Attrs: nounwind uwtable
define i64 @CORD_str(ptr noundef %0, i64 noundef %1, ptr noundef %2) local_unnamed_addr #0 {
  %4 = alloca [1 x %struct.CORD_Pos], align 16
  call void @llvm.lifetime.start.p0(i64 832, ptr nonnull %4) #16
  %5 = tail call i64 @CORD_len(ptr noundef %0) #16
  %6 = icmp eq ptr %2, null
  br i1 %6, label %.loopexit, label %7

7:                                                ; preds = %3
  %8 = load i8, ptr %2, align 1, !tbaa !8
  %.not = icmp eq i8 %8, 0
  br i1 %.not, label %11, label %9

9:                                                ; preds = %7
  %10 = tail call i64 @strlen(ptr noundef nonnull dereferenceable(1) %2) #20
  br label %15

11:                                               ; preds = %7
  %12 = tail call ptr @CORD_substr(ptr noundef nonnull %2, i64 noundef 0, i64 noundef 8) #16
  %13 = tail call ptr @CORD_to_char_star(ptr noundef %12)
  %14 = tail call i64 @CORD_len(ptr noundef nonnull %2) #16
  br label %15

15:                                               ; preds = %11, %9
  %.053 = phi i64 [ %10, %9 ], [ %14, %11 ]
  %.052 = phi ptr [ %2, %9 ], [ %13, %11 ]
  %.053.fr = freeze i64 %.053
  %16 = icmp ult i64 %5, %1
  %17 = sub nuw i64 %5, %1
  %18 = icmp ult i64 %17, %.053.fr
  %or.cond = select i1 %16, i1 true, i1 %18
  br i1 %or.cond, label %.loopexit, label %19

19:                                               ; preds = %15
  %spec.store.select = tail call i64 @llvm.umin.i64(i64 %.053.fr, i64 8)
  call void @CORD_set_pos(ptr noundef nonnull %4, ptr noundef %0, i64 noundef %1) #16
  %.not75 = icmp eq i64 %.053.fr, 0
  br i1 %.not75, label %.preheader.thread, label %.lr.ph

.preheader.thread:                                ; preds = %19
  %20 = sub nuw nsw i64 %5, %.053.fr
  %21 = getelementptr inbounds nuw i8, ptr %4, i64 32
  %22 = getelementptr inbounds nuw i8, ptr %4, i64 16
  %23 = getelementptr inbounds nuw i8, ptr %4, i64 24
  br label %.preheader.split.us

.lr.ph:                                           ; preds = %19
  %24 = getelementptr inbounds nuw i8, ptr %4, i64 32
  %25 = getelementptr inbounds nuw i8, ptr %4, i64 16
  %26 = getelementptr inbounds nuw i8, ptr %4, i64 24
  br label %65

.preheader:                                       ; preds = %93
  %27 = icmp ult i64 %.053.fr, 9
  %28 = sub nuw i64 %.053.fr, %spec.store.select
  %29 = sub i64 %5, %.053.fr
  %30 = getelementptr inbounds nuw i8, ptr %4, i64 32
  %31 = getelementptr inbounds nuw i8, ptr %4, i64 16
  %32 = getelementptr inbounds nuw i8, ptr %4, i64 24
  br i1 %27, label %.preheader.split.us, label %.preheader.split

.preheader.split.us:                              ; preds = %.preheader.thread, %.preheader
  %33 = phi ptr [ %23, %.preheader.thread ], [ %32, %.preheader ]
  %34 = phi ptr [ %22, %.preheader.thread ], [ %31, %.preheader ]
  %35 = phi ptr [ %21, %.preheader.thread ], [ %30, %.preheader ]
  %36 = phi i64 [ %20, %.preheader.thread ], [ %29, %.preheader ]
  %.049.lcssa90 = phi i64 [ 0, %.preheader.thread ], [ %67, %.preheader ]
  %.050.lcssa89 = phi i64 [ 0, %.preheader.thread ], [ %88, %.preheader ]
  %.051.lcssa88 = phi i64 [ 0, %.preheader.thread ], [ %72, %.preheader ]
  %37 = and i64 %.050.lcssa89, %.049.lcssa90
  %38 = icmp eq i64 %37, %.051.lcssa88
  br i1 %38, label %.loopexit, label %.lr.ph73

.lr.ph73:                                         ; preds = %.preheader.split.us, %61
  %.0.us72 = phi i64 [ %62, %61 ], [ %1, %.preheader.split.us ]
  %.1.us71 = phi i64 [ %56, %61 ], [ %.050.lcssa89, %.preheader.split.us ]
  %39 = icmp eq i64 %.0.us72, %36
  br i1 %39, label %.loopexit, label %40

40:                                               ; preds = %.lr.ph73
  %41 = shl i64 %.1.us71, 8
  %42 = load i64, ptr %35, align 16, !tbaa !17
  %.not60.us = icmp eq i64 %42, 0
  br i1 %.not60.us, label %50, label %43

43:                                               ; preds = %40
  %44 = load ptr, ptr %34, align 16, !tbaa !19
  %45 = load i64, ptr %4, align 16, !tbaa !18
  %46 = load i64, ptr %33, align 8, !tbaa !20
  %47 = sub i64 %45, %46
  %48 = getelementptr inbounds nuw i8, ptr %44, i64 %47
  %49 = load i8, ptr %48, align 1, !tbaa !8
  br label %52

50:                                               ; preds = %40
  %51 = call signext i8 @CORD__pos_fetch(ptr noundef nonnull %4) #16
  %.pre83 = load i64, ptr %4, align 16, !tbaa !18
  %.pre84 = load i64, ptr %35, align 16, !tbaa !17
  br label %52

52:                                               ; preds = %50, %43
  %53 = phi i64 [ %42, %43 ], [ %.pre84, %50 ]
  %54 = phi i64 [ %45, %43 ], [ %.pre83, %50 ]
  %.in.us = phi i8 [ %49, %43 ], [ %51, %50 ]
  %55 = zext i8 %.in.us to i64
  %56 = or disjoint i64 %41, %55
  %57 = add i64 %54, 1
  %58 = icmp ult i64 %57, %53
  br i1 %58, label %60, label %59

59:                                               ; preds = %52
  call void @CORD__next(ptr noundef nonnull %4) #16
  br label %61

60:                                               ; preds = %52
  store i64 %57, ptr %4, align 16, !tbaa !18
  br label %61

61:                                               ; preds = %60, %59
  %62 = add i64 %.0.us72, 1
  %63 = and i64 %56, %.049.lcssa90
  %64 = icmp eq i64 %63, %.051.lcssa88
  br i1 %64, label %.loopexit, label %.lr.ph73

65:                                               ; preds = %.lr.ph, %93
  %.04867 = phi i64 [ 0, %.lr.ph ], [ %94, %93 ]
  %.04966 = phi i64 [ 0, %.lr.ph ], [ %67, %93 ]
  %.05065 = phi i64 [ 0, %.lr.ph ], [ %88, %93 ]
  %.05164 = phi i64 [ 0, %.lr.ph ], [ %72, %93 ]
  %66 = shl i64 %.04966, 8
  %67 = or disjoint i64 %66, 255
  %68 = shl i64 %.05164, 8
  %69 = getelementptr inbounds nuw i8, ptr %.052, i64 %.04867
  %70 = load i8, ptr %69, align 1, !tbaa !8
  %71 = zext i8 %70 to i64
  %72 = or disjoint i64 %68, %71
  %73 = shl i64 %.05065, 8
  %74 = load i64, ptr %24, align 16, !tbaa !17
  %.not61 = icmp eq i64 %74, 0
  br i1 %.not61, label %82, label %75

75:                                               ; preds = %65
  %76 = load ptr, ptr %25, align 16, !tbaa !19
  %77 = load i64, ptr %4, align 16, !tbaa !18
  %78 = load i64, ptr %26, align 8, !tbaa !20
  %79 = sub i64 %77, %78
  %80 = getelementptr inbounds nuw i8, ptr %76, i64 %79
  %81 = load i8, ptr %80, align 1, !tbaa !8
  br label %84

82:                                               ; preds = %65
  %83 = call signext i8 @CORD__pos_fetch(ptr noundef nonnull %4) #16
  %.pre = load i64, ptr %4, align 16, !tbaa !18
  %.pre80 = load i64, ptr %24, align 16, !tbaa !17
  br label %84

84:                                               ; preds = %82, %75
  %85 = phi i64 [ %74, %75 ], [ %.pre80, %82 ]
  %86 = phi i64 [ %77, %75 ], [ %.pre, %82 ]
  %.in62 = phi i8 [ %81, %75 ], [ %83, %82 ]
  %87 = zext i8 %.in62 to i64
  %88 = or disjoint i64 %73, %87
  %89 = add i64 %86, 1
  %90 = icmp ult i64 %89, %85
  br i1 %90, label %91, label %92

91:                                               ; preds = %84
  store i64 %89, ptr %4, align 16, !tbaa !18
  br label %93

92:                                               ; preds = %84
  call void @CORD__next(ptr noundef nonnull %4) #16
  br label %93

93:                                               ; preds = %91, %92
  %94 = add nuw nsw i64 %.04867, 1
  %exitcond.not = icmp eq i64 %94, %spec.store.select
  br i1 %exitcond.not, label %.preheader, label %65, !llvm.loop !29

.preheader.split:                                 ; preds = %.preheader, %124
  %.1 = phi i64 [ %119, %124 ], [ %88, %.preheader ]
  %.0 = phi i64 [ %125, %124 ], [ %1, %.preheader ]
  %95 = and i64 %.1, %67
  %96 = icmp eq i64 %95, %72
  br i1 %96, label %97, label %101

97:                                               ; preds = %.preheader.split
  %98 = add i64 %.0, %spec.store.select
  %99 = call i32 @CORD_ncmp(ptr noundef %0, i64 noundef %98, ptr noundef nonnull %2, i64 noundef %spec.store.select, i64 noundef %28)
  %100 = icmp eq i32 %99, 0
  br i1 %100, label %.loopexit, label %101

101:                                              ; preds = %97, %.preheader.split
  %102 = icmp eq i64 %.0, %29
  br i1 %102, label %.loopexit, label %103

103:                                              ; preds = %101
  %104 = shl i64 %.1, 8
  %105 = load i64, ptr %30, align 16, !tbaa !17
  %.not60 = icmp eq i64 %105, 0
  br i1 %.not60, label %113, label %106

106:                                              ; preds = %103
  %107 = load ptr, ptr %31, align 16, !tbaa !19
  %108 = load i64, ptr %4, align 16, !tbaa !18
  %109 = load i64, ptr %32, align 8, !tbaa !20
  %110 = sub i64 %108, %109
  %111 = getelementptr inbounds nuw i8, ptr %107, i64 %110
  %112 = load i8, ptr %111, align 1, !tbaa !8
  br label %115

113:                                              ; preds = %103
  %114 = call signext i8 @CORD__pos_fetch(ptr noundef nonnull %4) #16
  %.pre81 = load i64, ptr %4, align 16, !tbaa !18
  %.pre82 = load i64, ptr %30, align 16, !tbaa !17
  br label %115

115:                                              ; preds = %113, %106
  %116 = phi i64 [ %105, %106 ], [ %.pre82, %113 ]
  %117 = phi i64 [ %108, %106 ], [ %.pre81, %113 ]
  %.in = phi i8 [ %112, %106 ], [ %114, %113 ]
  %118 = zext i8 %.in to i64
  %119 = or disjoint i64 %104, %118
  %120 = add i64 %117, 1
  %121 = icmp ult i64 %120, %116
  br i1 %121, label %122, label %123

122:                                              ; preds = %115
  store i64 %120, ptr %4, align 16, !tbaa !18
  br label %124

123:                                              ; preds = %115
  call void @CORD__next(ptr noundef nonnull %4) #16
  br label %124

124:                                              ; preds = %122, %123
  %125 = add i64 %.0, 1
  br label %.preheader.split

.loopexit:                                        ; preds = %101, %97, %.lr.ph73, %61, %.preheader.split.us, %15, %3
  %.054 = phi i64 [ %1, %3 ], [ -1, %15 ], [ %1, %.preheader.split.us ], [ %62, %61 ], [ -1, %.lr.ph73 ], [ %.0, %97 ], [ -1, %101 ]
  call void @llvm.lifetime.end.p0(i64 832, ptr nonnull %4) #16
  ret i64 %.054
}